target datalayout = "e-m:e-p270:32:32-p271:32:32-p272:64:64-i64:64-i128:128-f80:128-n8:16:32:64-S128"
target triple = "x86_64-pc-linux-gnu"

%struct._ts = type { ptr, ptr, ptr, i64, %struct.anon, i32, i32, i32, i32, i32, i32, i32, i32, ptr, ptr, ptr, ptr, ptr, ptr, ptr, ptr, i32, ptr, i64, i64, ptr, i64, i32, ptr, ptr, ptr, i64, i64, ptr, ptr, ptr, %struct._err_stackitem, ptr, i64, ptr, ptr }
%struct.anon = type { i32 }
%struct._err_stackitem = type { ptr, ptr }

; Function Attrs: nounwind uwtable
define hidden ptr @_PyErr_GetTopmostException(ptr noundef %0) #0 {
  %2 = alloca ptr, align 8
  %3 = alloca ptr, align 8
  store ptr %0, ptr %2, align 8, !tbaa !4
  call void @llvm.lifetime.start.p0(i64 8, ptr %3) #13
  %4 = load ptr, ptr %2, align 8, !tbaa !4
  %5 = getelementptr inbounds nuw %struct._ts, ptr %4, i32 0, i32 19
  %6 = load ptr, ptr %5, align 8, !tbaa !39
  store ptr %6, ptr %3, align 8, !tbaa !40
  br label %7

7:                                                ; preds = %19, %1
  %8 = load ptr, ptr %3, align 8, !tbaa !40
  %9 = getelementptr inbounds nuw %struct._err_stackitem, ptr %8, i32 0, i32 0
  %10 = load ptr, ptr %9, align 8, !tbaa !41
  %11 = icmp eq ptr %10, null
  br i1 %11, label %12, label %17

12:                                               ; preds = %7
  %13 = load ptr, ptr %3, align 8, !tbaa !40
  %14 = getelementptr inbounds nuw %struct._err_stackitem, ptr %13, i32 0, i32 1
  %15 = load ptr, ptr %14, align 8, !tbaa !42
  %16 = icmp ne ptr %15, null
  br label %17

17:                                               ; preds = %12, %7
  %18 = phi i1 [ false, %7 ], [ %16, %12 ]
  br i1 %18, label %19, label %23

19:                                               ; preds = %17
  %20 = load ptr, ptr %3, align 8, !tbaa !40
  %21 = getelementptr inbounds nuw %struct._err_stackitem, ptr %20, i32 0, i32 1
  %22 = load ptr, ptr %21, align 8, !tbaa !42
  store ptr %22, ptr %3, align 8, !tbaa !40
  br label %7, !llvm.loop !43

23:                                               ; preds = %17
  %24 = load ptr, ptr %3, align 8, !tbaa !40
  call void @llvm.lifetime.end.p0(i64 8, ptr %3) #13
  ret ptr %24
}