; Function Attrs: nofree norecurse nosync nounwind memory(read, inaccessiblemem: none) uwtable
define hidden noundef ptr @_PyErr_GetTopmostException(ptr noundef readonly captures(none) %0) local_unnamed_addr #2 {
  %2 = getelementptr inbounds nuw i8, ptr %0, i64 120
  %3 = load ptr, ptr %2, align 8, !tbaa !38
  br label %4

4:                                                ; preds = %7, %1
  %.0 = phi ptr [ %3, %1 ], [ %9, %7 ]
  %5 = load ptr, ptr %.0, align 8, !tbaa !39
  %6 = icmp eq ptr %5, null
  br i1 %6, label %7, label %.critedge

7:                                                ; preds = %4
  %8 = getelementptr inbounds nuw i8, ptr %.0, i64 8
  %9 = load ptr, ptr %8, align 8, !tbaa !40
  %.not = icmp eq ptr %9, null
  br i1 %.not, label %.critedge, label %4, !llvm.loop !41

.critedge:                                        ; preds = %4, %7
  ret ptr %.0
}